Certificate:
    Data:
        Version: 3 (0x2)
        Serial Number: 2 (0x2)
        Signature Algorithm: sha1WithRSAEncryption
        Issuer: DC=org, DC=simple, O=Simple Inc, OU=Simple Root CA, CN=Simple Root CA
        Validity
            Not Before: Dec  4 22:06:30 2022 GMT
            Not After : Dec  3 22:06:30 2032 GMT
        Subject: DC=org, DC=simple, O=Simple Inc, OU=Simple Signing CA, CN=Simple Signing CA
        Subject Public Key Info:
            Public Key Algorithm: rsaEncryption
                RSA Public-Key: (2048 bit)
                Modulus:
                    00:fe:79:aa:0a:8d:84:4c:40:a6:7c:47:02:cd:a5:
                    47:9a:6e:87:b4:17:90:0d:1f:f3:28:0b:c0:d5:6b:
                    87:c5:f4:25:9d:b1:c5:75:ca:ad:61:e9:95:7e:6c:
                    b8:a2:66:a6:7c:2d:8e:aa:c3:1e:a5:0d:32:3f:0b:
                    61:05:53:af:c7:42:6b:48:7a:d4:ba:f7:b8:6c:1e:
                    cd:71:ea:02:57:3e:f7:7d:48:4c:77:a8:f2:5a:bc:
                    f1:39:66:08:b3:27:34:e8:fa:85:75:35:3c:81:70:
                    99:47:62:e4:52:09:a1:c7:e8:9c:1f:d1:13:d6:d2:
                    04:24:00:70:06:a7:97:9b:de:46:fd:03:1d:97:ab:
                    12:66:79:e0:7d:e9:7d:26:24:a8:2e:cd:70:99:a3:
                    a0:af:6b:4a:7a:5d:b7:61:a8:e6:ff:95:d4:be:55:
                    27:5b:19:80:b2:1a:07:f0:23:be:c9:c6:83:d5:aa:
                    42:53:a2:31:d0:93:5e:95:2e:51:91:1c:19:07:a4:
                    6d:ef:0e:6a:a1:25:59:9b:a6:d7:de:ca:7b:f5:21:
                    cc:b5:41:b1:e9:33:25:a5:1b:8c:06:76:85:b8:53:
                    1a:51:00:bb:13:56:c6:4f:5f:85:5e:c8:90:04:41:
                    c0:f3:a4:e9:fa:56:ab:96:c8:90:e3:80:fa:f6:1e:
                    53:25
                Exponent: 65537 (0x10001)
        X509v3 extensions:
            X509v3 Key Usage: critical
                Certificate Sign, CRL Sign
            X509v3 Basic Constraints: critical
                CA:TRUE, pathlen:0
            X509v3 Subject Key Identifier: 
                1B:0A:97:EB:FB:9C:77:B7:FE:CA:47:2E:8E:7B:AA:D8:7D:18:AA:6B
            X509v3 Authority Key Identifier: 
                keyid:1F:F4:35:26:68:68:B9:9B:6A:74:3F:15:5A:34:80:0E:08:D8:B1:9D

    Signature Algorithm: sha1WithRSAEncryption
         b2:0b:b6:5b:bf:41:50:43:0e:b0:20:89:f1:f9:9e:09:93:e7:
         ba:1a:48:6a:93:d9:86:ad:6f:c7:01:7a:85:03:1f:77:87:96:
         44:5e:d4:aa:6e:ae:2f:08:6f:1b:22:0f:10:22:14:72:19:5b:
         a5:90:0f:da:cc:dd:3c:e6:89:11:d2:78:35:38:dc:af:59:be:
         fa:18:41:12:71:ba:2c:6e:9b:5c:17:3c:72:aa:32:37:c6:d0:
         28:e4:41:03:c0:00:74:a3:7a:db:e2:73:02:2c:0a:6c:3d:ca:
         a1:ea:08:00:69:27:fd:03:bb:08:50:02:d1:d8:ed:2b:3b:df:
         60:cc:20:e0:88:fa:4e:6e:24:b0:e2:79:e4:0e:b3:92:66:5a:
         1a:8f:0b:f8:2f:e4:6a:df:33:5c:d0:91:8a:04:22:50:af:e3:
         8a:43:05:8a:fe:c2:96:de:5e:83:5d:3a:e0:0b:47:20:3c:f4:
         76:64:ca:08:3e:ce:e9:f4:1f:f4:b8:77:59:76:5f:89:ec:50:
         03:01:76:42:8f:1c:16:b9:16:5e:a2:2c:bd:1e:25:1f:b6:b8:
         a7:32:6c:18:b7:7f:39:61:55:98:d6:53:12:94:3d:6d:33:ca:
         c4:bd:15:16:ab:25:e8:d7:0f:99:5b:da:b7:22:c1:78:ad:18:
         33:95:3f:26
-----BEGIN CERTIFICATE-----
MIIDzzCCAregAwIBAgIBAjANBgkqhkiG9w0BAQUFADB0MRMwEQYKCZImiZPyLGQB
GRYDb3JnMRYwFAYKCZImiZPyLGQBGRYGc2ltcGxlMRMwEQYDVQQKDApTaW1wbGUg
SW5jMRcwFQYDVQQLDA5TaW1wbGUgUm9vdCBDQTEXMBUGA1UEAwwOU2ltcGxlIFJv
b3QgQ0EwHhcNMjIxMjA0MjIwNjMwWhcNMzIxMjAzMjIwNjMwWjB6MRMwEQYKCZIm
iZPyLGQBGRYDb3JnMRYwFAYKCZImiZPyLGQBGRYGc2ltcGxlMRMwEQYDVQQKDApT
aW1wbGUgSW5jMRowGAYDVQQLDBFTaW1wbGUgU2lnbmluZyBDQTEaMBgGA1UEAwwR
U2ltcGxlIFNpZ25pbmcgQ0EwggEiMA0GCSqGSIb3DQEBAQUAA4IBDwAwggEKAoIB
AQD+eaoKjYRMQKZ8RwLNpUeaboe0F5ANH/MoC8DVa4fF9CWdscV1yq1h6ZV+bLii
ZqZ8LY6qwx6lDTI/C2EFU6/HQmtIetS697hsHs1x6gJXPvd9SEx3qPJavPE5Zgiz
JzTo+oV1NTyBcJlHYuRSCaHH6Jwf0RPW0gQkAHAGp5eb3kb9Ax2XqxJmeeB96X0m
JKguzXCZo6Cva0p6XbdhqOb/ldS+VSdbGYCyGgfwI77JxoPVqkJTojHQk16VLlGR
HBkHpG3vDmqhJVmbptfeynv1Icy1QbHpMyWlG4wGdoW4UxpRALsTVsZPX4VeyJAE
QcDzpOn6VquWyJDjgPr2HlMlAgMBAAGjZjBkMA4GA1UdDwEB/wQEAwIBBjASBgNV
HRMBAf8ECDAGAQH/AgEAMB0GA1UdDgQWBBQbCpfr+5x3t/7KRy6Oe6rYfRiqazAf
BgNVHSMEGDAWgBQf9DUmaGi5m2p0PxVaNIAOCNixnTANBgkqhkiG9w0BAQUFAAOC
AQEAsgu2W79BUEMOsCCJ8fmeCZPnuhpIapPZhq1vxwF6hQMfd4eWRF7Uqm6uLwhv
GyIPECIUchlbpZAP2szdPOaJEdJ4NTjcr1m++hhBEnG6LG6bXBc8cqoyN8bQKORB
A8AAdKN62+JzAiwKbD3KoeoIAGkn/QO7CFAC0djtKzvfYMwg4Ij6Tm4ksOJ55A6z
kmZaGo8L+C/kat8zXNCRigQiUK/jikMFiv7Clt5eg1064AtHIDz0dmTKCD7O6fQf
9Lh3WXZfiexQAwF2Qo8cFrkWXqIsvR4lH7a4pzJsGLd/OWFVmNZTEpQ9bTPKxL0V
Fqsl6NcPmVvatyLBeK0YM5U/Jg==
-----END CERTIFICATE-----
Certificate:
    Data:
        Version: 3 (0x2)
        Serial Number: 1 (0x1)
        Signature Algorithm: sha1WithRSAEncryption
        Issuer: DC=org, DC=simple, O=Simple Inc, OU=Simple Root CA, CN=Simple Root CA
        Validity
            Not Before: Dec  4 22:05:08 2022 GMT
            Not After : Dec  3 22:05:08 2032 GMT
        Subject: DC=org, DC=simple, O=Simple Inc, OU=Simple Root CA, CN=Simple Root CA
        Subject Public Key Info:
            Public Key Algorithm: rsaEncryption
                RSA Public-Key: (2048 bit)
                Modulus:
                    00:b7:85:69:62:48:6e:a6:76:3f:bd:af:1e:9b:f1:
                    c9:79:52:6d:8a:5c:a1:02:ec:f1:36:5d:5c:e1:4b:
                    18:a7:1a:e3:bc:72:6c:36:de:82:ad:fb:3a:62:6e:
                    61:79:37:a2:50:1b:ea:35:92:86:ba:a5:a4:dd:2d:
                    99:f7:08:0b:dc:7b:b2:4a:12:61:04:5d:b6:a3:be:
                    1b:dd:5c:66:6e:b4:4a:10:c8:7a:3d:5a:dd:ed:06:
                    36:1a:26:4b:8c:62:a2:cf:a0:99:55:9c:91:6f:be:
                    90:b7:19:74:5a:67:a1:24:fc:1f:28:ab:18:13:b1:
                    4f:18:94:66:a0:9c:a4:79:9b:e5:51:2c:97:8a:54:
                    64:3c:ae:8e:5a:e6:4d:a0:10:0f:2a:dd:95:55:9d:
                    f0:98:08:8c:d1:f1:27:4b:94:4e:bc:b0:f9:5d:b2:
                    99:44:37:53:26:89:75:82:6f:53:59:4d:7f:e0:ed:
                    f7:ee:3e:70:60:ff:02:d0:30:68:66:de:5c:f6:7d:
                    0c:13:1a:a2:a0:f1:94:7c:f4:fb:a3:85:cd:d0:78:
                    6f:c4:90:8a:48:e9:c2:32:8e:8b:a1:32:34:f0:10:
                    4c:50:af:b7:1b:62:b1:7c:78:20:94:92:bf:c5:41:
                    bf:47:38:a3:3a:8c:bd:b2:1a:a7:07:43:3b:38:17:
                    86:0f
                Exponent: 65537 (0x10001)
        X509v3 extensions:
            X509v3 Key Usage: critical
                Certificate Sign, CRL Sign
            X509v3 Basic Constraints: critical
                CA:TRUE
            X509v3 Subject Key Identifier: 
                1F:F4:35:26:68:68:B9:9B:6A:74:3F:15:5A:34:80:0E:08:D8:B1:9D
            X509v3 Authority Key Identifier: 
                keyid:1F:F4:35:26:68:68:B9:9B:6A:74:3F:15:5A:34:80:0E:08:D8:B1:9D

    Signature Algorithm: sha1WithRSAEncryption
         61:a4:99:c9:1e:e9:9e:b7:ce:18:80:dc:f4:97:93:ca:a3:0a:
         f4:ea:d8:19:6c:90:70:f1:e1:af:8a:81:80:d8:2d:4f:6f:a8:
         f1:1f:8e:ad:e5:c2:79:d4:c1:85:95:2f:62:bc:9b:21:4b:3a:
         d5:f3:45:de:18:f8:fc:8f:75:cf:01:a6:05:d8:e4:fb:e9:a6:
         2d:0e:4b:fd:95:f5:30:a3:f3:b1:fe:e5:e2:1a:82:77:db:9d:
         39:d3:15:35:46:26:ac:4d:00:1f:8f:d8:aa:ca:c3:30:f3:a8:
         a6:ad:49:35:41:59:c9:27:47:ff:74:e6:07:58:86:76:41:6e:
         10:7c:6f:35:f3:27:d5:6f:38:ff:f6:5e:56:0e:cb:6d:0c:32:
         19:75:02:26:ab:cd:c7:6b:ef:ba:65:1c:4c:93:99:2e:10:70:
         3e:a6:74:06:46:b3:6f:e5:f5:2b:e3:d7:dd:a5:6e:ac:ce:fc:
         bd:df:72:80:7a:67:98:ab:f7:ed:b8:26:6d:76:03:37:af:90:
         f6:d7:16:ff:0d:93:50:d3:57:21:75:3c:67:3a:83:cb:f4:8c:
         c3:85:51:77:42:8f:d9:52:a4:b5:57:11:60:a3:af:f5:af:52:
         83:fa:a6:de:d2:12:d4:9e:08:a9:c0:c8:b3:c8:5b:7b:29:2e:
         9e:9f:32:6c
-----BEGIN CERTIFICATE-----
MIIDxjCCAq6gAwIBAgIBATANBgkqhkiG9w0BAQUFADB0MRMwEQYKCZImiZPyLGQB
GRYDb3JnMRYwFAYKCZImiZPyLGQBGRYGc2ltcGxlMRMwEQYDVQQKDApTaW1wbGUg
SW5jMRcwFQYDVQQLDA5TaW1wbGUgUm9vdCBDQTEXMBUGA1UEAwwOU2ltcGxlIFJv
b3QgQ0EwHhcNMjIxMjA0MjIwNTA4WhcNMzIxMjAzMjIwNTA4WjB0MRMwEQYKCZIm
iZPyLGQBGRYDb3JnMRYwFAYKCZImiZPyLGQBGRYGc2ltcGxlMRMwEQYDVQQKDApT
aW1wbGUgSW5jMRcwFQYDVQQLDA5TaW1wbGUgUm9vdCBDQTEXMBUGA1UEAwwOU2lt
cGxlIFJvb3QgQ0EwggEiMA0GCSqGSIb3DQEBAQUAA4IBDwAwggEKAoIBAQC3hWli
SG6mdj+9rx6b8cl5Um2KXKEC7PE2XVzhSxinGuO8cmw23oKt+zpibmF5N6JQG+o1
koa6paTdLZn3CAvce7JKEmEEXbajvhvdXGZutEoQyHo9Wt3tBjYaJkuMYqLPoJlV
nJFvvpC3GXRaZ6Ek/B8oqxgTsU8YlGagnKR5m+VRLJeKVGQ8ro5a5k2gEA8q3ZVV
nfCYCIzR8SdLlE68sPldsplEN1MmiXWCb1NZTX/g7ffuPnBg/wLQMGhm3lz2fQwT
GqKg8ZR89Pujhc3QeG/EkIpI6cIyjouhMjTwEExQr7cbYrF8eCCUkr/FQb9HOKM6
jL2yGqcHQzs4F4YPAgMBAAGjYzBhMA4GA1UdDwEB/wQEAwIBBjAPBgNVHRMBAf8E
BTADAQH/MB0GA1UdDgQWBBQf9DUmaGi5m2p0PxVaNIAOCNixnTAfBgNVHSMEGDAW
gBQf9DUmaGi5m2p0PxVaNIAOCNixnTANBgkqhkiG9w0BAQUFAAOCAQEAYaSZyR7p
nrfOGIDc9JeTyqMK9OrYGWyQcPHhr4qBgNgtT2+o8R+OreXCedTBhZUvYrybIUs6
1fNF3hj4/I91zwGmBdjk++mmLQ5L/ZX1MKPzsf7l4hqCd9udOdMVNUYmrE0AH4/Y
qsrDMPOopq1JNUFZySdH/3TmB1iGdkFuEHxvNfMn1W84//ZeVg7LbQwyGXUCJqvN
x2vvumUcTJOZLhBwPqZ0Bkazb+X1K+PX3aVurM78vd9ygHpnmKv37bgmbXYDN6+Q
9tcW/w2TUNNXIXU8ZzqDy/SMw4VRd0KP2VKktVcRYKOv9a9Sg/qm3tIS1J4IqcDI
s8hbeykunp8ybA==
-----END CERTIFICATE-----
