Certificate:
    Data:
        Version: 3 (0x2)
        Serial Number: 2 (0x2)
        Signature Algorithm: sha1WithRSAEncryption
        Issuer: DC=org, DC=simple, O=Simple Inc, OU=Simple Signing CA, CN=Simple Signing CA
        Validity
            Not Before: Dec  4 22:13:18 2022 GMT
            Not After : Dec  3 22:13:18 2024 GMT
        Subject: DC=org, DC=simple, O=Simple Inc, CN=www.simple.org
        Subject Public Key Info:
            Public Key Algorithm: rsaEncryption
                RSA Public-Key: (2048 bit)
                Modulus:
                    00:ed:ca:b5:e9:d0:66:c8:6a:8a:a4:24:bf:17:3b:
                    ef:4a:23:86:98:48:a0:c7:e3:59:24:8c:52:47:1d:
                    24:ca:3a:ac:93:9a:39:8e:7f:d6:6e:74:7d:56:50:
                    51:91:6b:3b:00:2e:dd:43:3e:73:54:27:73:1b:20:
                    b0:75:21:e9:fa:40:e4:f8:88:66:e4:ff:f4:70:a1:
                    78:d8:f8:67:c2:b0:d1:0a:c7:46:9f:2b:b6:e8:29:
                    8f:86:a9:58:d6:6a:a1:19:94:46:80:8c:30:9f:d3:
                    40:b4:f7:2e:ab:a8:24:bd:1a:ad:f1:df:c7:64:5b:
                    8f:68:71:7e:ae:31:c3:7a:89:5d:ec:32:f1:ec:82:
                    3a:cc:36:62:c9:d6:d2:0a:6c:a2:94:af:61:00:b4:
                    42:8d:f5:2b:84:7b:88:a6:5f:66:e0:8f:46:39:19:
                    c1:9e:01:b8:51:c3:f8:5f:cb:4a:c7:92:1f:da:d4:
                    39:4b:10:0d:81:39:f4:a6:74:70:9f:3e:8a:a8:f0:
                    9b:88:4d:cd:76:94:60:0b:77:c6:fd:51:af:36:0e:
                    ea:73:9e:6b:3c:22:0e:69:4d:05:39:86:df:d5:f2:
                    21:94:c1:a6:4d:6e:e7:59:ec:c6:00:53:fe:14:30:
                    65:f6:39:8a:31:f8:08:eb:30:52:44:50:b6:af:fb:
                    db:ef
                Exponent: 65537 (0x10001)
        X509v3 extensions:
            X509v3 Key Usage: critical
                Digital Signature, Key Encipherment
            X509v3 Basic Constraints: 
                CA:FALSE
            X509v3 Extended Key Usage: 
                TLS Web Server Authentication, TLS Web Client Authentication
            X509v3 Subject Key Identifier: 
                1F:16:2D:B2:B7:BE:71:FD:FB:EC:BB:92:1E:5F:A2:85:B4:21:88:96
            X509v3 Authority Key Identifier: 
                keyid:1B:0A:97:EB:FB:9C:77:B7:FE:CA:47:2E:8E:7B:AA:D8:7D:18:AA:6B

            X509v3 Subject Alternative Name: 
                DNS:www.simple.org
    Signature Algorithm: sha1WithRSAEncryption
         54:5a:d4:cf:94:ee:6d:aa:ad:dd:fc:fd:52:c6:b4:da:e9:f7:
         c4:62:b9:6b:c2:75:3f:41:b9:e0:57:4d:6f:8c:a4:5d:c8:e0:
         5c:8f:4c:b6:fa:d1:78:b2:51:9a:7e:53:39:63:30:79:55:72:
         aa:ee:3a:e0:ed:9d:92:fe:63:fa:ae:19:4b:32:19:e4:81:5a:
         e0:b0:e6:ac:12:24:ca:ba:62:5a:84:2d:61:80:1f:99:c2:40:
         91:1c:70:33:f7:16:4b:51:9e:7f:10:30:27:f7:00:e3:94:dd:
         dd:b7:2c:01:8f:84:18:7c:03:03:cd:a5:a8:bf:24:65:f4:94:
         36:c4:fd:9f:5e:77:e3:b3:91:64:06:1d:44:ba:37:91:29:0b:
         cb:5b:e6:5c:b7:6a:08:7c:9f:bf:59:a8:c0:b2:d8:8b:64:14:
         2f:ba:68:16:c8:57:f3:ce:0d:90:61:f8:d5:7d:be:bb:7d:26:
         78:a9:79:76:b9:cf:5b:0d:08:74:fc:64:b7:66:2a:4a:aa:25:
         2a:e3:d2:0b:90:6d:34:54:60:53:a9:ba:9b:52:27:a0:a3:58:
         ba:58:3d:9c:d0:f9:67:c5:7b:d1:0c:11:4f:f2:24:33:b3:b6:
         53:e6:c1:1f:6a:75:a1:20:68:cc:14:6f:a6:11:50:fa:4f:33:
         13:12:2f:c2
-----BEGIN CERTIFICATE-----
MIID6TCCAtGgAwIBAgIBAjANBgkqhkiG9w0BAQUFADB6MRMwEQYKCZImiZPyLGQB
GRYDb3JnMRYwFAYKCZImiZPyLGQBGRYGc2ltcGxlMRMwEQYDVQQKDApTaW1wbGUg
SW5jMRowGAYDVQQLDBFTaW1wbGUgU2lnbmluZyBDQTEaMBgGA1UEAwwRU2ltcGxl
IFNpZ25pbmcgQ0EwHhcNMjIxMjA0MjIxMzE4WhcNMjQxMjAzMjIxMzE4WjBbMRMw
EQYKCZImiZPyLGQBGRYDb3JnMRYwFAYKCZImiZPyLGQBGRYGc2ltcGxlMRMwEQYD
VQQKDApTaW1wbGUgSW5jMRcwFQYDVQQDDA53d3cuc2ltcGxlLm9yZzCCASIwDQYJ
KoZIhvcNAQEBBQADggEPADCCAQoCggEBAO3KtenQZshqiqQkvxc770ojhphIoMfj
WSSMUkcdJMo6rJOaOY5/1m50fVZQUZFrOwAu3UM+c1QncxsgsHUh6fpA5PiIZuT/
9HCheNj4Z8Kw0QrHRp8rtugpj4apWNZqoRmURoCMMJ/TQLT3LquoJL0arfHfx2Rb
j2hxfq4xw3qJXewy8eyCOsw2YsnW0gpsopSvYQC0Qo31K4R7iKZfZuCPRjkZwZ4B
uFHD+F/LSseSH9rUOUsQDYE59KZ0cJ8+iqjwm4hNzXaUYAt3xv1RrzYO6nOeazwi
DmlNBTmG39XyIZTBpk1u51nsxgBT/hQwZfY5ijH4COswUkRQtq/72+8CAwEAAaOB
mDCBlTAOBgNVHQ8BAf8EBAMCBaAwCQYDVR0TBAIwADAdBgNVHSUEFjAUBggrBgEF
BQcDAQYIKwYBBQUHAwIwHQYDVR0OBBYEFB8WLbK3vnH9++y7kh5fooW0IYiWMB8G
A1UdIwQYMBaAFBsKl+v7nHe3/spHLo57qth9GKprMBkGA1UdEQQSMBCCDnd3dy5z
aW1wbGUub3JnMA0GCSqGSIb3DQEBBQUAA4IBAQBUWtTPlO5tqq3d/P1SxrTa6ffE
YrlrwnU/QbngV01vjKRdyOBcj0y2+tF4slGaflM5YzB5VXKq7jrg7Z2S/mP6rhlL
MhnkgVrgsOasEiTKumJahC1hgB+ZwkCRHHAz9xZLUZ5/EDAn9wDjlN3dtywBj4QY
fAMDzaWovyRl9JQ2xP2fXnfjs5FkBh1EujeRKQvLW+Zct2oIfJ+/WajAstiLZBQv
umgWyFfzzg2QYfjVfb67fSZ4qXl2uc9bDQh0/GS3ZipKqiUq49ILkG00VGBTqbqb
Uiego1i6WD2c0PlnxXvRDBFP8iQzs7ZT5sEfanWhIGjMFG+mEVD6TzMTEi/C
-----END CERTIFICATE-----
